target datalayout = "e-m:e-p270:32:32-p271:32:32-p272:64:64-i64:64-i128:128-f80:128-n8:16:32:64-S128"
target triple = "x86_64-pc-linux-gnu"

@.str = private unnamed_addr constant [40 x i8] c"../openssl/test/keymgmt_internal_test.c\00", align 1
@cert_filename = internal global ptr null, align 8
@.str.7 = private unnamed_addr constant [8 x i8] c"default\00", align 1
@.str.35 = private unnamed_addr constant [4 x i8] c"RSA\00", align 1
@.str.86 = private unnamed_addr constant [28 x i8] c"libctx = OSSL_LIB_CTX_new()\00", align 1
@.str.87 = private unnamed_addr constant [45 x i8] c"prov = OSSL_PROVIDER_load(libctx, \22default\22)\00", align 1
@.str.88 = private unnamed_addr constant [2 x i8] c"r\00", align 1
@.str.89 = private unnamed_addr constant [32 x i8] c"Couldn't open '%s' for reading\0A\00", align 1
@.str.90 = private unnamed_addr constant [61 x i8] c"'%s' doesn't appear to be a X.509 certificate in PEM format\0A\00", align 1
@.str.91 = private unnamed_addr constant [62 x i8] c"keydata = evp_pkey_export_to_provider(pkey, NULL, NULL, NULL)\00", align 1
@.str.92 = private unnamed_addr constant [66 x i8] c"keydata = evp_pkey_export_to_provider(pkey, NULL, &keymgmt, NULL)\00", align 1

; Function Attrs: nounwind uwtable
define internal i32 @test_evp_pkey_export_to_provider(i32 noundef %0) #0 {
  %2 = alloca i32, align 4
  %3 = alloca ptr, align 8
  %4 = alloca ptr, align 8
  %5 = alloca ptr, align 8
  %6 = alloca ptr, align 8
  %7 = alloca ptr, align 8
  %8 = alloca ptr, align 8
  %9 = alloca ptr, align 8
  %10 = alloca ptr, align 8
  %11 = alloca i32, align 4
  store i32 %0, ptr %2, align 4, !tbaa !9
  call void @llvm.lifetime.start.p0(i64 8, ptr %3) #4
  store ptr null, ptr %3, align 8, !tbaa !12
  call void @llvm.lifetime.start.p0(i64 8, ptr %4) #4
  store ptr null, ptr %4, align 8, !tbaa !14
  call void @llvm.lifetime.start.p0(i64 8, ptr %5) #4
  store ptr null, ptr %5, align 8, !tbaa !16
  call void @llvm.lifetime.start.p0(i64 8, ptr %6) #4
  store ptr null, ptr %6, align 8, !tbaa !18
  call void @llvm.lifetime.start.p0(i64 8, ptr %7) #4
  store ptr null, ptr %7, align 8, !tbaa !20
  call void @llvm.lifetime.start.p0(i64 8, ptr %8) #4
  store ptr null, ptr %8, align 8, !tbaa !22
  call void @llvm.lifetime.start.p0(i64 8, ptr %9) #4
  store ptr null, ptr %9, align 8, !tbaa !24
  call void @llvm.lifetime.start.p0(i64 8, ptr %10) #4
  store ptr null, ptr %10, align 8, !tbaa !11
  call void @llvm.lifetime.start.p0(i64 4, ptr %11) #4
  store i32 0, ptr %11, align 4, !tbaa !9
  %12 = call ptr @OSSL_LIB_CTX_new()
  store ptr %12, ptr %3, align 8, !tbaa !12
  %13 = call i32 @test_ptr(ptr noundef @.str, i32 noundef 308, ptr noundef @.str.86, ptr noundef %12)
  %14 = icmp ne i32 %13, 0
  br i1 %14, label %15, label %20

15:                                               ; preds = %1
  %16 = load ptr, ptr %3, align 8, !tbaa !12
  %17 = call ptr @OSSL_PROVIDER_load(ptr noundef %16, ptr noundef @.str.7)
  store ptr %17, ptr %4, align 8, !tbaa !14
  %18 = call i32 @test_ptr(ptr noundef @.str, i32 noundef 309, ptr noundef @.str.87, ptr noundef %17)
  %19 = icmp ne i32 %18, 0
  br i1 %19, label %21, label %20

20:                                               ; preds = %15, %1
  br label %68

21:                                               ; preds = %15
  %22 = load ptr, ptr @cert_filename, align 8, !tbaa !4
  %23 = call ptr @BIO_new_file(ptr noundef %22, ptr noundef @.str.88)
  store ptr %23, ptr %6, align 8, !tbaa !18
  %24 = icmp eq ptr %23, null
  br i1 %24, label %25, label %27

25:                                               ; preds = %21
  %26 = load ptr, ptr @cert_filename, align 8, !tbaa !4
  call void (ptr, i32, ptr, ...) @test_error(ptr noundef @.str, i32 noundef 313, ptr noundef @.str.89, ptr noundef %26)
  call void @test_openssl_errors()
  br label %68

27:                                               ; preds = %21
  %28 = load ptr, ptr %6, align 8, !tbaa !18
  %29 = call ptr @PEM_read_bio_X509(ptr noundef %28, ptr noundef null, ptr noundef null, ptr noundef null)
  store ptr %29, ptr %5, align 8, !tbaa !16
  %30 = icmp eq ptr %29, null
  br i1 %30, label %31, label %33

31:                                               ; preds = %27
  %32 = load ptr, ptr @cert_filename, align 8, !tbaa !4
  call void (ptr, i32, ptr, ...) @test_error(ptr noundef @.str, i32 noundef 320, ptr noundef @.str.90, ptr noundef %32)
  call void @test_openssl_errors()
  br label %68

33:                                               ; preds = %27
  %34 = load ptr, ptr %5, align 8, !tbaa !16
  %35 = call ptr @X509_get_X509_PUBKEY(ptr noundef %34)
  store ptr %35, ptr %7, align 8, !tbaa !20
  %36 = load ptr, ptr %7, align 8, !tbaa !20
  %37 = call ptr @X509_PUBKEY_get0(ptr noundef %36)
  store ptr %37, ptr %9, align 8, !tbaa !24
  %38 = load i32, ptr %2, align 4, !tbaa !9
  %39 = icmp eq i32 %38, 0
  br i1 %39, label %40, label %47

40:                                               ; preds = %33
  %41 = load ptr, ptr %9, align 8, !tbaa !24
  %42 = call ptr @evp_pkey_export_to_provider(ptr noundef %41, ptr noundef null, ptr noundef null, ptr noundef null)
  store ptr %42, ptr %10, align 8, !tbaa !11
  %43 = call i32 @test_ptr(ptr noundef @.str, i32 noundef 330, ptr noundef @.str.91, ptr noundef %42)
  %44 = icmp ne i32 %43, 0
  br i1 %44, label %46, label %45

45:                                               ; preds = %40
  br label %68

46:                                               ; preds = %40
  br label %67

47:                                               ; preds = %33
  %48 = load i32, ptr %2, align 4, !tbaa !9
  %49 = icmp eq i32 %48, 1
  br i1 %49, label %50, label %57

50:                                               ; preds = %47
  %51 = load ptr, ptr %9, align 8, !tbaa !24
  %52 = call ptr @evp_pkey_export_to_provider(ptr noundef %51, ptr noundef null, ptr noundef %8, ptr noundef null)
  store ptr %52, ptr %10, align 8, !tbaa !11
  %53 = call i32 @test_ptr(ptr noundef @.str, i32 noundef 334, ptr noundef @.str.92, ptr noundef %52)
  %54 = icmp ne i32 %53, 0
  br i1 %54, label %56, label %55

55:                                               ; preds = %50
  br label %68

56:                                               ; preds = %50
  br label %66

57:                                               ; preds = %47
  %58 = load ptr, ptr %3, align 8, !tbaa !12
  %59 = call ptr @EVP_KEYMGMT_fetch(ptr noundef %58, ptr noundef @.str.35, ptr noundef null)
  store ptr %59, ptr %8, align 8, !tbaa !22
  %60 = load ptr, ptr %9, align 8, !tbaa !24
  %61 = call ptr @evp_pkey_export_to_provider(ptr noundef %60, ptr noundef null, ptr noundef %8, ptr noundef null)
  store ptr %61, ptr %10, align 8, !tbaa !11
  %62 = call i32 @test_ptr(ptr noundef @.str, i32 noundef 340, ptr noundef @.str.92, ptr noundef %61)
  %63 = icmp ne i32 %62, 0
  br i1 %63, label %65, label %64

64:                                               ; preds = %57
  br label %68

65:                                               ; preds = %57
  br label %66

66:                                               ; preds = %65, %56
  br label %67

67:                                               ; preds = %66, %46
  store i32 1, ptr %11, align 4, !tbaa !9
  br label %68

68:                                               ; preds = %67, %64, %55, %45, %31, %25, %20
  %69 = load ptr, ptr %6, align 8, !tbaa !18
  %70 = call i32 @BIO_free(ptr noundef %69)
  %71 = load ptr, ptr %5, align 8, !tbaa !16
  call void @X509_free(ptr noundef %71)
  %72 = load ptr, ptr %8, align 8, !tbaa !22
  call void @EVP_KEYMGMT_free(ptr noundef %72)
  %73 = load ptr, ptr %4, align 8, !tbaa !14
  %74 = call i32 @OSSL_PROVIDER_unload(ptr noundef %73)
  %75 = load ptr, ptr %3, align 8, !tbaa !12
  call void @OSSL_LIB_CTX_free(ptr noundef %75)
  %76 = load i32, ptr %11, align 4, !tbaa !9
  call void @llvm.lifetime.end.p0(i64 4, ptr %11) #4
  call void @llvm.lifetime.end.p0(i64 8, ptr %10) #4
  call void @llvm.lifetime.end.p0(i64 8, ptr %9) #4
  call void @llvm.lifetime.end.p0(i64 8, ptr %8) #4
  call void @llvm.lifetime.end.p0(i64 8, ptr %7) #4
  call void @llvm.lifetime.end.p0(i64 8, ptr %6) #4
  call void @llvm.lifetime.end.p0(i64 8, ptr %5) #4
  call void @llvm.lifetime.end.p0(i64 8, ptr %4) #4
  call void @llvm.lifetime.end.p0(i64 8, ptr %3) #4
  ret i32 %76
}