; Function Attrs: nounwind uwtable
define internal range(i32 0, 2) i32 @test_evp_pkey_export_to_provider(i32 noundef %0) #0 {
  %2 = alloca ptr, align 8
  call void @llvm.lifetime.start.p0(i64 8, ptr nonnull %2) #3
  store ptr null, ptr %2, align 8, !tbaa !16
  %3 = tail call ptr @OSSL_LIB_CTX_new() #3
  %4 = tail call i32 @test_ptr(ptr noundef nonnull @.str, i32 noundef 308, ptr noundef nonnull @.str.86, ptr noundef %3) #3
  %.not = icmp eq i32 %4, 0
  br i1 %.not, label %33, label %5

5:                                                ; preds = %1
  %6 = tail call ptr @OSSL_PROVIDER_load(ptr noundef %3, ptr noundef nonnull @.str.7) #3
  %7 = tail call i32 @test_ptr(ptr noundef nonnull @.str, i32 noundef 309, ptr noundef nonnull @.str.87, ptr noundef %6) #3
  %.not21 = icmp eq i32 %7, 0
  br i1 %.not21, label %33, label %8

8:                                                ; preds = %5
  %9 = load ptr, ptr @cert_filename, align 8, !tbaa !4
  %10 = tail call ptr @BIO_new_file(ptr noundef %9, ptr noundef nonnull @.str.88) #3
  %11 = icmp eq ptr %10, null
  br i1 %11, label %12, label %14

12:                                               ; preds = %8
  %13 = load ptr, ptr @cert_filename, align 8, !tbaa !4
  tail call void (ptr, i32, ptr, ...) @test_error(ptr noundef nonnull @.str, i32 noundef 313, ptr noundef nonnull @.str.89, ptr noundef %13) #3
  tail call void @test_openssl_errors() #3
  br label %33

14:                                               ; preds = %8
  %15 = tail call ptr @PEM_read_bio_X509(ptr noundef nonnull %10, ptr noundef null, ptr noundef null, ptr noundef null) #3
  %16 = icmp eq ptr %15, null
  br i1 %16, label %17, label %19

17:                                               ; preds = %14
  %18 = load ptr, ptr @cert_filename, align 8, !tbaa !4
  tail call void (ptr, i32, ptr, ...) @test_error(ptr noundef nonnull @.str, i32 noundef 320, ptr noundef nonnull @.str.90, ptr noundef %18) #3
  tail call void @test_openssl_errors() #3
  br label %33

19:                                               ; preds = %14
  %20 = tail call ptr @X509_get_X509_PUBKEY(ptr noundef nonnull %15) #3
  %21 = tail call ptr @X509_PUBKEY_get0(ptr noundef %20) #3
  switch i32 %0, label %28 [
    i32 0, label %22
    i32 1, label %25
  ]

22:                                               ; preds = %19
  %23 = tail call ptr @evp_pkey_export_to_provider(ptr noundef %21, ptr noundef null, ptr noundef null, ptr noundef null) #3
  %24 = tail call i32 @test_ptr(ptr noundef nonnull @.str, i32 noundef 330, ptr noundef nonnull @.str.91, ptr noundef %23) #3
  %.not24 = icmp eq i32 %24, 0
  br i1 %.not24, label %33, label %32

25:                                               ; preds = %19
  %26 = call ptr @evp_pkey_export_to_provider(ptr noundef %21, ptr noundef null, ptr noundef nonnull %2, ptr noundef null) #3
  %27 = call i32 @test_ptr(ptr noundef nonnull @.str, i32 noundef 334, ptr noundef nonnull @.str.92, ptr noundef %26) #3
  %.not23 = icmp eq i32 %27, 0
  br i1 %.not23, label %33, label %32

28:                                               ; preds = %19
  %29 = tail call ptr @EVP_KEYMGMT_fetch(ptr noundef %3, ptr noundef nonnull @.str.35, ptr noundef null) #3
  store ptr %29, ptr %2, align 8, !tbaa !16
  %30 = call ptr @evp_pkey_export_to_provider(ptr noundef %21, ptr noundef null, ptr noundef nonnull %2, ptr noundef null) #3
  %31 = call i32 @test_ptr(ptr noundef nonnull @.str, i32 noundef 340, ptr noundef nonnull @.str.92, ptr noundef %30) #3
  %.not22 = icmp eq i32 %31, 0
  br i1 %.not22, label %33, label %32

32:                                               ; preds = %25, %28, %22
  br label %33

33:                                               ; preds = %28, %25, %22, %1, %5, %32, %17, %12
  %.016 = phi ptr [ %6, %12 ], [ %6, %17 ], [ %6, %32 ], [ %6, %22 ], [ %6, %25 ], [ %6, %28 ], [ %6, %5 ], [ null, %1 ]
  %.015 = phi ptr [ null, %12 ], [ null, %17 ], [ %15, %32 ], [ %15, %22 ], [ %15, %25 ], [ %15, %28 ], [ null, %5 ], [ null, %1 ]
  %.014 = phi ptr [ null, %12 ], [ %10, %17 ], [ %10, %32 ], [ %10, %22 ], [ %10, %25 ], [ %10, %28 ], [ null, %5 ], [ null, %1 ]
  %.0 = phi i32 [ 0, %12 ], [ 0, %17 ], [ 1, %32 ], [ 0, %22 ], [ 0, %25 ], [ 0, %28 ], [ 0, %5 ], [ 0, %1 ]
  %34 = call i32 @BIO_free(ptr noundef %.014) #3
  call void @X509_free(ptr noundef %.015) #3
  %35 = load ptr, ptr %2, align 8, !tbaa !16
  call void @EVP_KEYMGMT_free(ptr noundef %35) #3
  %36 = call i32 @OSSL_PROVIDER_unload(ptr noundef %.016) #3
  call void @OSSL_LIB_CTX_free(ptr noundef %3) #3
  call void @llvm.lifetime.end.p0(i64 8, ptr nonnull %2) #3
  ret i32 %.0
}